target datalayout = "e-m:e-p270:32:32-p271:32:32-p272:64:64-i64:64-i128:128-f80:128-n8:16:32:64-S128"
target triple = "x86_64-pc-linux-gnu"

%struct.H5T_t = type { %struct.H5O_shared_t, ptr, %struct.H5O_loc_t, %struct.H5G_name_t, ptr }
%struct.H5O_shared_t = type { i32, ptr, i32, %union.anon }
%union.anon = type { %struct.H5O_mesg_loc_t }
%struct.H5O_mesg_loc_t = type { i32, i64 }
%struct.H5O_loc_t = type { ptr, i64, i8 }
%struct.H5G_name_t = type { ptr, ptr, i32 }
%struct.H5T_shared_t = type { i64, i32, i32, i64, i32, i8, ptr, ptr, %union.anon.0 }
%union.anon.0 = type { %struct.H5T_array_t }
%struct.H5T_array_t = type { i64, i32, [32 x i64] }
%struct.H5T_atomic_t = type { i32, i64, i64, i32, i32, %union.anon.1 }
%union.anon.1 = type { %struct.anon.2 }
%struct.anon.2 = type { i64, i64, i64, i64, i64, i64, i32, i32 }
%struct.anon = type { i32 }

@H5_libinit_g = external global i8, align 1
@H5_libterm_g = external global i8, align 1
@.str = private unnamed_addr constant [102 x i8] c"generated/home/dtcxzyw/WorkSpace/Projects/compilers/llvm-opt-benchmark/bench/hdf5/hdf5/src/H5Tfixed.c\00", align 1
@__func__.H5Tget_sign = private unnamed_addr constant [12 x i8] c"H5Tget_sign\00", align 1
@H5E_FUNC_g = external global i64, align 8
@H5E_CANTINIT_g = external global i64, align 8
@.str.1 = private unnamed_addr constant [30 x i8] c"library initialization failed\00", align 1
@H5E_CANTSET_g = external global i64, align 8
@.str.2 = private unnamed_addr constant [22 x i8] c"can't set API context\00", align 1
@H5E_ARGS_g = external global i64, align 8
@H5E_BADTYPE_g = external global i64, align 8
@.str.3 = private unnamed_addr constant [24 x i8] c"not an integer datatype\00", align 1
@__func__.H5T_get_sign = private unnamed_addr constant [13 x i8] c"H5T_get_sign\00", align 1
@H5E_DATATYPE_g = external global i64, align 8
@.str.4 = private unnamed_addr constant [41 x i8] c"operation not defined for datatype class\00", align 1

; Function Attrs: nounwind uwtable
define i32 @H5T_get_sign(ptr noundef %0) #0 {
  %2 = alloca ptr, align 8
  %3 = alloca i32, align 4
  %4 = alloca i8, align 1
  store ptr %0, ptr %2, align 8
  store i32 -1, ptr %3, align 4
  store i8 0, ptr %4, align 1
  br label %5

5:                                                ; preds = %12, %1
  %6 = load ptr, ptr %2, align 8
  %7 = getelementptr inbounds %struct.H5T_t, ptr %6, i32 0, i32 1
  %8 = load ptr, ptr %7, align 8
  %9 = getelementptr inbounds %struct.H5T_shared_t, ptr %8, i32 0, i32 6
  %10 = load ptr, ptr %9, align 8
  %11 = icmp ne ptr %10, null
  br i1 %11, label %12, label %18

12:                                               ; preds = %5
  %13 = load ptr, ptr %2, align 8
  %14 = getelementptr inbounds %struct.H5T_t, ptr %13, i32 0, i32 1
  %15 = load ptr, ptr %14, align 8
  %16 = getelementptr inbounds %struct.H5T_shared_t, ptr %15, i32 0, i32 6
  %17 = load ptr, ptr %16, align 8
  store ptr %17, ptr %2, align 8
  br label %5

18:                                               ; preds = %5
  %19 = load ptr, ptr %2, align 8
  %20 = getelementptr inbounds %struct.H5T_t, ptr %19, i32 0, i32 1
  %21 = load ptr, ptr %20, align 8
  %22 = getelementptr inbounds %struct.H5T_shared_t, ptr %21, i32 0, i32 2
  %23 = load i32, ptr %22, align 4
  %24 = icmp ne i32 0, %23
  br i1 %24, label %25, label %40

25:                                               ; preds = %18
  br label %26

26:                                               ; preds = %25
  br label %27

27:                                               ; preds = %26
  br label %28

28:                                               ; preds = %27
  %29 = load i64, ptr @H5E_DATATYPE_g, align 8
  %30 = load i64, ptr @H5E_CANTINIT_g, align 8
  %31 = call i32 (ptr, ptr, i32, i64, i64, ptr, ...) @H5E_printf_stack(ptr noundef @.str, ptr noundef @__func__.H5T_get_sign, i32 noundef 81, i64 noundef %29, i64 noundef %30, ptr noundef @.str.4)
  br label %32

32:                                               ; preds = %28
  store i8 1, ptr %4, align 1
  %33 = load i8, ptr %4, align 1
  %34 = trunc i8 %33 to i1
  %35 = zext i1 %34 to i8
  store i8 %35, ptr %4, align 1
  br label %36

36:                                               ; preds = %32
  br label %37

37:                                               ; preds = %36
  store i32 -1, ptr %3, align 4
  br label %48

38:                                               ; No predecessors!
  br label %39

39:                                               ; preds = %38
  br label %40

40:                                               ; preds = %39, %18
  %41 = load ptr, ptr %2, align 8
  %42 = getelementptr inbounds %struct.H5T_t, ptr %41, i32 0, i32 1
  %43 = load ptr, ptr %42, align 8
  %44 = getelementptr inbounds %struct.H5T_shared_t, ptr %43, i32 0, i32 8
  %45 = getelementptr inbounds %struct.H5T_atomic_t, ptr %44, i32 0, i32 5
  %46 = getelementptr inbounds %struct.anon, ptr %45, i32 0, i32 0
  %47 = load i32, ptr %46, align 8
  store i32 %47, ptr %3, align 4
  br label %48

48:                                               ; preds = %40, %37
  %49 = load i32, ptr %3, align 4
  ret i32 %49
}

; Function Attrs: nounwind uwtable
define i32 @H5Tget_sign(i64 noundef %0) #0 {
  %2 = alloca i64, align 8
  %3 = alloca ptr, align 8
  %4 = alloca i32, align 4
  %5 = alloca i8, align 1
  %6 = alloca i8, align 1
  store i64 %0, ptr %2, align 8
  store ptr null, ptr %3, align 8
  store i8 0, ptr %5, align 1
  store i8 0, ptr %6, align 1
  %7 = load i8, ptr @H5_libinit_g, align 1
  %8 = trunc i8 %7 to i1
  br i1 %8, label %13, label %9

9:                                                ; preds = %1
  %10 = load i8, ptr @H5_libterm_g, align 1
  %11 = trunc i8 %10 to i1
  %12 = xor i1 %11, true
  br label %13

13:                                               ; preds = %9, %1
  %14 = phi i1 [ false, %1 ], [ %12, %9 ]
  %15 = xor i1 %14, true
  %16 = xor i1 %15, true
  %17 = zext i1 %16 to i32
  %18 = sext i32 %17 to i64
  %19 = icmp ne i64 %18, 0
  br i1 %19, label %20, label %44

20:                                               ; preds = %13
  %21 = call i32 @H5_init_library()
  %22 = icmp slt i32 %21, 0
  %23 = xor i1 %22, true
  %24 = xor i1 %23, true
  %25 = zext i1 %24 to i32
  %26 = sext i32 %25 to i64
  %27 = icmp ne i64 %26, 0
  br i1 %27, label %28, label %43

28:                                               ; preds = %20
  br label %29

29:                                               ; preds = %28
  br label %30

30:                                               ; preds = %29
  br label %31

31:                                               ; preds = %30
  %32 = load i64, ptr @H5E_FUNC_g, align 8
  %33 = load i64, ptr @H5E_CANTINIT_g, align 8
  %34 = call i32 (ptr, ptr, i32, i64, i64, ptr, ...) @H5E_printf_stack(ptr noundef @.str, ptr noundef @__func__.H5Tget_sign, i32 noundef 42, i64 noundef %32, i64 noundef %33, ptr noundef @.str.1)
  br label %35

35:                                               ; preds = %31
  store i8 1, ptr %6, align 1
  %36 = load i8, ptr %6, align 1
  %37 = trunc i8 %36 to i1
  %38 = zext i1 %37 to i8
  store i8 %38, ptr %6, align 1
  br label %39

39:                                               ; preds = %35
  br label %40

40:                                               ; preds = %39
  store i32 -1, ptr %4, align 4
  br label %91

41:                                               ; No predecessors!
  br label %42

42:                                               ; preds = %41
  br label %43

43:                                               ; preds = %42, %20
  br label %44

44:                                               ; preds = %43, %13
  %45 = call i32 @H5CX_push()
  %46 = icmp slt i32 %45, 0
  %47 = xor i1 %46, true
  %48 = xor i1 %47, true
  %49 = zext i1 %48 to i32
  %50 = sext i32 %49 to i64
  %51 = icmp ne i64 %50, 0
  br i1 %51, label %52, label %67

52:                                               ; preds = %44
  br label %53

53:                                               ; preds = %52
  br label %54

54:                                               ; preds = %53
  br label %55

55:                                               ; preds = %54
  %56 = load i64, ptr @H5E_FUNC_g, align 8
  %57 = load i64, ptr @H5E_CANTSET_g, align 8
  %58 = call i32 (ptr, ptr, i32, i64, i64, ptr, ...) @H5E_printf_stack(ptr noundef @.str, ptr noundef @__func__.H5Tget_sign, i32 noundef 42, i64 noundef %56, i64 noundef %57, ptr noundef @.str.2)
  br label %59

59:                                               ; preds = %55
  store i8 1, ptr %6, align 1
  %60 = load i8, ptr %6, align 1
  %61 = trunc i8 %60 to i1
  %62 = zext i1 %61 to i8
  store i8 %62, ptr %6, align 1
  br label %63

63:                                               ; preds = %59
  br label %64

64:                                               ; preds = %63
  store i32 -1, ptr %4, align 4
  br label %91

65:                                               ; No predecessors!
  br label %66

66:                                               ; preds = %65
  br label %68

67:                                               ; preds = %44
  store i8 1, ptr %5, align 1
  br label %68

68:                                               ; preds = %67, %66
  %69 = call i32 @H5E_clear_stack()
  %70 = load i64, ptr %2, align 8
  %71 = call ptr @H5I_object_verify(i64 noundef %70, i32 noundef 3)
  store ptr %71, ptr %3, align 8
  %72 = icmp eq ptr null, %71
  br i1 %72, label %73, label %88

73:                                               ; preds = %68
  br label %74

74:                                               ; preds = %73
  br label %75

75:                                               ; preds = %74
  br label %76

76:                                               ; preds = %75
  %77 = load i64, ptr @H5E_ARGS_g, align 8
  %78 = load i64, ptr @H5E_BADTYPE_g, align 8
  %79 = call i32 (ptr, ptr, i32, i64, i64, ptr, ...) @H5E_printf_stack(ptr noundef @.str, ptr noundef @__func__.H5Tget_sign, i32 noundef 46, i64 noundef %77, i64 noundef %78, ptr noundef @.str.3)
  br label %80

80:                                               ; preds = %76
  store i8 1, ptr %6, align 1
  %81 = load i8, ptr %6, align 1
  %82 = trunc i8 %81 to i1
  %83 = zext i1 %82 to i8
  store i8 %83, ptr %6, align 1
  br label %84

84:                                               ; preds = %80
  br label %85

85:                                               ; preds = %84
  store i32 -1, ptr %4, align 4
  br label %91

86:                                               ; No predecessors!
  br label %87

87:                                               ; preds = %86
  br label %88

88:                                               ; preds = %87, %68
  %89 = load ptr, ptr %3, align 8
  %90 = call i32 @H5T_get_sign(ptr noundef %89)
  store i32 %90, ptr %4, align 4
  br label %91

91:                                               ; preds = %88, %85, %64, %40
  %92 = load i8, ptr %5, align 1
  %93 = trunc i8 %92 to i1
  %94 = xor i1 %93, true
  %95 = xor i1 %94, true
  %96 = zext i1 %95 to i32
  %97 = sext i32 %96 to i64
  %98 = icmp ne i64 %97, 0
  br i1 %98, label %99, label %101

99:                                               ; preds = %91
  %100 = call i32 @H5CX_pop(i1 noundef zeroext true)
  store i8 0, ptr %5, align 1
  br label %101

101:                                              ; preds = %99, %91
  %102 = load i8, ptr %6, align 1
  %103 = trunc i8 %102 to i1
  %104 = xor i1 %103, true
  %105 = xor i1 %104, true
  %106 = zext i1 %105 to i32
  %107 = sext i32 %106 to i64
  %108 = icmp ne i64 %107, 0
  br i1 %108, label %109, label %111

109:                                              ; preds = %101
  %110 = call i32 @H5E_dump_api_stack()
  br label %111

111:                                              ; preds = %109, %101
  %112 = load i32, ptr %4, align 4
  ret i32 %112
}