; Function Attrs: nounwind uwtable
define i32 @H5Tget_sign(i64 noundef %0) local_unnamed_addr #0 {
  %2 = load i8, ptr @H5_libinit_g, align 1
  %3 = trunc i8 %2 to i1
  %4 = load i8, ptr @H5_libterm_g, align 1
  %5 = trunc i8 %4 to i1
  %6 = select i1 %3, i1 true, i1 %5
  br i1 %6, label %14, label %7

7:                                                ; preds = %1
  %8 = tail call i32 @H5_init_library() #2
  %9 = icmp slt i32 %8, 0
  br i1 %9, label %10, label %14

10:                                               ; preds = %7
  %11 = load i64, ptr @H5E_FUNC_g, align 8
  %12 = load i64, ptr @H5E_CANTINIT_g, align 8
  %13 = tail call i32 (ptr, ptr, i32, i64, i64, ptr, ...) @H5E_printf_stack(ptr noundef nonnull @.str, ptr noundef nonnull @__func__.H5Tget_sign, i32 noundef 42, i64 noundef %11, i64 noundef %12, ptr noundef nonnull @.str.1) #2
  br label %H5T_get_sign.exit.thread18

14:                                               ; preds = %7, %1
  %15 = tail call i32 @H5CX_push() #2
  %16 = icmp slt i32 %15, 0
  br i1 %16, label %17, label %21

17:                                               ; preds = %14
  %18 = load i64, ptr @H5E_FUNC_g, align 8
  %19 = load i64, ptr @H5E_CANTSET_g, align 8
  %20 = tail call i32 (ptr, ptr, i32, i64, i64, ptr, ...) @H5E_printf_stack(ptr noundef nonnull @.str, ptr noundef nonnull @__func__.H5Tget_sign, i32 noundef 42, i64 noundef %18, i64 noundef %19, ptr noundef nonnull @.str.2) #2
  br label %H5T_get_sign.exit.thread18

21:                                               ; preds = %14
  %22 = tail call i32 @H5E_clear_stack() #2
  %23 = tail call ptr @H5I_object_verify(i64 noundef %0, i32 noundef 3) #2
  %24 = icmp eq ptr %23, null
  br i1 %24, label %H5T_get_sign.exit, label %.preheader

.preheader:                                       ; preds = %21, %.preheader
  %.05.i = phi ptr [ %28, %.preheader ], [ %23, %21 ]
  %25 = getelementptr inbounds i8, ptr %.05.i, i64 40
  %26 = load ptr, ptr %25, align 8
  %27 = getelementptr inbounds i8, ptr %26, i64 32
  %28 = load ptr, ptr %27, align 8
  %.not.i = icmp eq ptr %28, null
  br i1 %.not.i, label %29, label %.preheader

29:                                               ; preds = %.preheader
  %30 = getelementptr inbounds i8, ptr %26, i64 12
  %31 = load i32, ptr %30, align 4
  %.not7.i = icmp eq i32 %31, 0
  br i1 %.not7.i, label %36, label %32

32:                                               ; preds = %29
  %33 = load i64, ptr @H5E_DATATYPE_g, align 8
  %34 = load i64, ptr @H5E_CANTINIT_g, align 8
  %35 = tail call i32 (ptr, ptr, i32, i64, i64, ptr, ...) @H5E_printf_stack(ptr noundef nonnull @.str, ptr noundef nonnull @__func__.H5T_get_sign, i32 noundef 81, i64 noundef %33, i64 noundef %34, ptr noundef nonnull @.str.4) #2
  br label %H5T_get_sign.exit.thread24

36:                                               ; preds = %29
  %37 = getelementptr inbounds i8, ptr %26, i64 80
  %38 = load i32, ptr %37, align 8
  br label %H5T_get_sign.exit.thread24

H5T_get_sign.exit.thread24:                       ; preds = %36, %32
  %.08.ph.ph = phi i32 [ -1, %32 ], [ %38, %36 ]
  %39 = tail call i32 @H5CX_pop(i1 noundef zeroext true) #2
  br label %45

H5T_get_sign.exit:                                ; preds = %21
  %40 = load i64, ptr @H5E_ARGS_g, align 8
  %41 = load i64, ptr @H5E_BADTYPE_g, align 8
  %42 = tail call i32 (ptr, ptr, i32, i64, i64, ptr, ...) @H5E_printf_stack(ptr noundef nonnull @.str, ptr noundef nonnull @__func__.H5Tget_sign, i32 noundef 46, i64 noundef %40, i64 noundef %41, ptr noundef nonnull @.str.3) #2
  %43 = tail call i32 @H5CX_pop(i1 noundef zeroext true) #2
  br label %H5T_get_sign.exit.thread18

H5T_get_sign.exit.thread18:                       ; preds = %17, %10, %H5T_get_sign.exit
  %44 = tail call i32 @H5E_dump_api_stack() #2
  br label %45

45:                                               ; preds = %H5T_get_sign.exit.thread24, %H5T_get_sign.exit.thread18
  %.081321 = phi i32 [ -1, %H5T_get_sign.exit.thread18 ], [ %.08.ph.ph, %H5T_get_sign.exit.thread24 ]
  ret i32 %.081321
}